; Function Attrs: mustprogress nofree norecurse nosync nounwind willreturn memory(argmem: write) uwtable
define void @_ZN3g2o10HyperGraphC2Ev(ptr noundef nonnull align 8 dereferenceable(112) initializes((0, 8)) %0) unnamed_addr #0 align 2 personality ptr @__gxx_personality_v0 {
  store ptr getelementptr inbounds nuw inrange(-16, 88) (i8, ptr @_ZTVN3g2o10HyperGraphE, i64 16), ptr %0, align 8, !tbaa !3
  %2 = getelementptr inbounds nuw i8, ptr %0, i64 8
  %3 = getelementptr inbounds nuw i8, ptr %0, i64 56
  store ptr %3, ptr %2, align 8, !tbaa !57
  %4 = getelementptr inbounds nuw i8, ptr %0, i64 16
  store i64 1, ptr %4, align 8, !tbaa !56
  %5 = getelementptr inbounds nuw i8, ptr %0, i64 24
  %6 = getelementptr inbounds nuw i8, ptr %0, i64 40
  tail call void @llvm.memset.p0.i64(ptr noundef nonnull align 8 dereferenceable(16) %5, i8 0, i64 16, i1 false)
  store float 1.000000e+00, ptr %6, align 8, !tbaa !66
  %7 = getelementptr inbounds nuw i8, ptr %0, i64 48
  tail call void @llvm.memset.p0.i64(ptr noundef nonnull align 8 dereferenceable(16) %7, i8 0, i64 16, i1 false)
  %8 = getelementptr inbounds nuw i8, ptr %0, i64 72
  store i32 0, ptr %8, align 8, !tbaa !26
  %9 = getelementptr inbounds nuw i8, ptr %0, i64 80
  store ptr null, ptr %9, align 8, !tbaa !27
  %10 = getelementptr inbounds nuw i8, ptr %0, i64 88
  store ptr %8, ptr %10, align 8, !tbaa !28
  %11 = getelementptr inbounds nuw i8, ptr %0, i64 96
  store ptr %8, ptr %11, align 8, !tbaa !29
  %12 = getelementptr inbounds nuw i8, ptr %0, i64 104
  store i64 0, ptr %12, align 8, !tbaa !30
  ret void
}